target datalayout = "e-m:e-p270:32:32-p271:32:32-p272:64:64-i64:64-i128:128-f80:128-n8:16:32:64-S128"
target triple = "x86_64-pc-linux-gnu"

%struct.SDL_Keyboard = type { ptr, i16, [512 x i8], [512 x i8], ptr, i32, i8, i64, i32 }
%union.SDL_Event = type { %struct.SDL_MouseWheelEvent, [72 x i8] }
%struct.SDL_MouseWheelEvent = type { i32, i32, i64, i32, i32, float, float, i32, float, float, i32, i32 }
%struct.SDL_Window = type { i32, ptr, ptr, i32, i32, i32, i32, i32, i32, i32, i32, float, float, i32, i32, i64, i64, float, i8, i8, i32, i32, %struct.SDL_Rect, %struct.SDL_Rect, %struct.SDL_Rect, i8, i8, i8, %struct.SDL_DisplayMode, %struct.SDL_DisplayMode, %struct.SDL_HDROutputProperties, float, ptr, i8, i8, i8, i8, i8, i8, i8, i8, i8, i32, i32, i32, i32, %struct.SDL_Rect, i32, i8, %struct.SDL_Rect, i32, %struct.SDL_Rect, ptr, ptr, i32, float, i32, i32, ptr, ptr, ptr, ptr, ptr, ptr, ptr, ptr, ptr }
%struct.SDL_DisplayMode = type { i32, i32, i32, i32, float, float, i32, i32, ptr }
%struct.SDL_HDROutputProperties = type { float, float }
%struct.SDL_Rect = type { i32, i32, i32, i32 }
%struct.SDL_CommonEvent = type { i32, i32, i64 }
%struct.SDL_TextEditingEvent = type { i32, i32, i64, i32, ptr, i32, i32 }
%struct.SDL_TextEditingCandidatesEvent = type { i32, i32, i64, i32, ptr, i32, i32, i8, i8, i8, i8 }

@SDL_keyboard = internal global %struct.SDL_Keyboard zeroinitializer, align 8

; Function Attrs: nounwind uwtable
define internal ptr @CreateCandidatesForEvent(ptr noundef %0, i32 noundef %1) #0 {
  %3 = alloca ptr, align 8
  %4 = alloca ptr, align 8
  %5 = alloca i32, align 4
  %6 = alloca ptr, align 8
  %7 = alloca i32, align 4
  %8 = alloca ptr, align 8
  %9 = alloca i64, align 8
  %10 = alloca i64, align 8
  %11 = alloca i32, align 4
  %12 = alloca i64, align 8
  store ptr %0, ptr %4, align 8
  store i32 %1, ptr %5, align 4
  call void @llvm.lifetime.start.p0(i64 8, ptr %6) #6
  call void @llvm.lifetime.start.p0(i64 4, ptr %7) #6
  call void @llvm.lifetime.start.p0(i64 8, ptr %8) #6
  call void @llvm.lifetime.start.p0(i64 8, ptr %9) #6
  %13 = load i32, ptr %5, align 4
  %14 = add nsw i32 %13, 1
  %15 = sext i32 %14 to i64
  %16 = mul i64 %15, 8
  store i64 %16, ptr %9, align 8
  store i32 0, ptr %7, align 4
  br label %17

17:                                               ; preds = %32, %2
  %18 = load i32, ptr %7, align 4
  %19 = load i32, ptr %5, align 4
  %20 = icmp slt i32 %18, %19
  br i1 %20, label %21, label %35

21:                                               ; preds = %17
  call void @llvm.lifetime.start.p0(i64 8, ptr %10) #6
  %22 = load ptr, ptr %4, align 8
  %23 = load i32, ptr %7, align 4
  %24 = sext i32 %23 to i64
  %25 = getelementptr inbounds ptr, ptr %22, i64 %24
  %26 = load ptr, ptr %25, align 8
  %27 = call i64 @SDL_strlen_REAL(ptr noundef %26)
  %28 = add i64 %27, 1
  store i64 %28, ptr %10, align 8
  %29 = load i64, ptr %10, align 8
  %30 = load i64, ptr %9, align 8
  %31 = add i64 %30, %29
  store i64 %31, ptr %9, align 8
  call void @llvm.lifetime.end.p0(i64 8, ptr %10) #6
  br label %32

32:                                               ; preds = %21
  %33 = load i32, ptr %7, align 4
  %34 = add nsw i32 %33, 1
  store i32 %34, ptr %7, align 4
  br label %17, !llvm.loop !13

35:                                               ; preds = %17
  %36 = load i64, ptr %9, align 8
  %37 = call ptr @SDL_AllocateTemporaryMemory(i64 noundef %36)
  store ptr %37, ptr %6, align 8
  %38 = load ptr, ptr %6, align 8
  %39 = icmp ne ptr %38, null
  br i1 %39, label %41, label %40

40:                                               ; preds = %35
  store ptr null, ptr %3, align 8
  store i32 1, ptr %11, align 4
  br label %83

41:                                               ; preds = %35
  %42 = load ptr, ptr %6, align 8
  %43 = load i32, ptr %5, align 4
  %44 = add nsw i32 %43, 1
  %45 = sext i32 %44 to i64
  %46 = getelementptr inbounds ptr, ptr %42, i64 %45
  store ptr %46, ptr %8, align 8
  store i32 0, ptr %7, align 4
  br label %47

47:                                               ; preds = %74, %41
  %48 = load i32, ptr %7, align 4
  %49 = load i32, ptr %5, align 4
  %50 = icmp slt i32 %48, %49
  br i1 %50, label %51, label %77

51:                                               ; preds = %47
  call void @llvm.lifetime.start.p0(i64 8, ptr %12) #6
  %52 = load ptr, ptr %4, align 8
  %53 = load i32, ptr %7, align 4
  %54 = sext i32 %53 to i64
  %55 = getelementptr inbounds ptr, ptr %52, i64 %54
  %56 = load ptr, ptr %55, align 8
  %57 = call i64 @SDL_strlen_REAL(ptr noundef %56)
  %58 = add i64 %57, 1
  store i64 %58, ptr %12, align 8
  %59 = load ptr, ptr %8, align 8
  %60 = load ptr, ptr %6, align 8
  %61 = load i32, ptr %7, align 4
  %62 = sext i32 %61 to i64
  %63 = getelementptr inbounds ptr, ptr %60, i64 %62
  store ptr %59, ptr %63, align 8
  %64 = load ptr, ptr %8, align 8
  %65 = load ptr, ptr %4, align 8
  %66 = load i32, ptr %7, align 4
  %67 = sext i32 %66 to i64
  %68 = getelementptr inbounds ptr, ptr %65, i64 %67
  %69 = load ptr, ptr %68, align 8
  %70 = load i64, ptr %12, align 8
  call void @llvm.memcpy.p0.p0.i64(ptr align 1 %64, ptr align 1 %69, i64 %70, i1 false)
  %71 = load i64, ptr %12, align 8
  %72 = load ptr, ptr %8, align 8
  %73 = getelementptr inbounds nuw i8, ptr %72, i64 %71
  store ptr %73, ptr %8, align 8
  call void @llvm.lifetime.end.p0(i64 8, ptr %12) #6
  br label %74

74:                                               ; preds = %51
  %75 = load i32, ptr %7, align 4
  %76 = add nsw i32 %75, 1
  store i32 %76, ptr %7, align 4
  br label %47, !llvm.loop !14

77:                                               ; preds = %47
  %78 = load ptr, ptr %6, align 8
  %79 = load i32, ptr %7, align 4
  %80 = sext i32 %79 to i64
  %81 = getelementptr inbounds ptr, ptr %78, i64 %80
  store ptr null, ptr %81, align 8
  %82 = load ptr, ptr %6, align 8
  store ptr %82, ptr %3, align 8
  store i32 1, ptr %11, align 4
  br label %83

83:                                               ; preds = %77, %40
  call void @llvm.lifetime.end.p0(i64 8, ptr %9) #6
  call void @llvm.lifetime.end.p0(i64 8, ptr %8) #6
  call void @llvm.lifetime.end.p0(i64 4, ptr %7) #6
  call void @llvm.lifetime.end.p0(i64 8, ptr %6) #6
  %84 = load ptr, ptr %3, align 8
  ret ptr %84
}

; Function Attrs: nounwind uwtable
define hidden void @SDL_SendEditingTextCandidates(ptr noundef %0, i32 noundef %1, i32 noundef %2, i1 noundef zeroext %3) #0 {
  %5 = alloca ptr, align 8
  %6 = alloca i32, align 4
  %7 = alloca i32, align 4
  %8 = alloca i8, align 1
  %9 = alloca ptr, align 8
  %10 = alloca i32, align 4
  %11 = alloca %union.SDL_Event, align 8
  %12 = alloca ptr, align 8
  store ptr %0, ptr %5, align 8
  store i32 %1, ptr %6, align 4
  store i32 %2, ptr %7, align 4
  %13 = zext i1 %3 to i8
  store i8 %13, ptr %8, align 1
  call void @llvm.lifetime.start.p0(i64 8, ptr %9) #6
  store ptr @SDL_keyboard, ptr %9, align 8
  %14 = load ptr, ptr %9, align 8
  %15 = getelementptr inbounds nuw %struct.SDL_Keyboard, ptr %14, i32 0, i32 0
  %16 = load ptr, ptr %15, align 8
  %17 = icmp ne ptr %16, null
  br i1 %17, label %18, label %23

18:                                               ; preds = %4
  %19 = load ptr, ptr %9, align 8
  %20 = getelementptr inbounds nuw %struct.SDL_Keyboard, ptr %19, i32 0, i32 0
  %21 = load ptr, ptr %20, align 8
  %22 = call zeroext i1 @SDL_TextInputActive_REAL(ptr noundef %21)
  br i1 %22, label %24, label %23

23:                                               ; preds = %18, %4
  store i32 1, ptr %10, align 4
  br label %76

24:                                               ; preds = %18
  %25 = call zeroext i1 @SDL_EventEnabled_REAL(i32 noundef 775)
  br i1 %25, label %26, label %75

26:                                               ; preds = %24
  call void @llvm.lifetime.start.p0(i64 128, ptr %11) #6
  store i32 775, ptr %11, align 8
  %27 = getelementptr inbounds nuw %struct.SDL_CommonEvent, ptr %11, i32 0, i32 2
  store i64 0, ptr %27, align 8
  %28 = load ptr, ptr %9, align 8
  %29 = getelementptr inbounds nuw %struct.SDL_Keyboard, ptr %28, i32 0, i32 0
  %30 = load ptr, ptr %29, align 8
  %31 = icmp ne ptr %30, null
  br i1 %31, label %32, label %38

32:                                               ; preds = %26
  %33 = load ptr, ptr %9, align 8
  %34 = getelementptr inbounds nuw %struct.SDL_Keyboard, ptr %33, i32 0, i32 0
  %35 = load ptr, ptr %34, align 8
  %36 = getelementptr inbounds nuw %struct.SDL_Window, ptr %35, i32 0, i32 0
  %37 = load i32, ptr %36, align 8
  br label %39

38:                                               ; preds = %26
  br label %39

39:                                               ; preds = %38, %32
  %40 = phi i32 [ %37, %32 ], [ 0, %38 ]
  %41 = getelementptr inbounds nuw %struct.SDL_TextEditingEvent, ptr %11, i32 0, i32 3
  store i32 %40, ptr %41, align 8
  %42 = load i32, ptr %6, align 4
  %43 = icmp sgt i32 %42, 0
  br i1 %43, label %44, label %65

44:                                               ; preds = %39
  call void @llvm.lifetime.start.p0(i64 8, ptr %12) #6
  %45 = load ptr, ptr %5, align 8
  %46 = load i32, ptr %6, align 4
  %47 = call ptr @CreateCandidatesForEvent(ptr noundef %45, i32 noundef %46)
  store ptr %47, ptr %12, align 8
  %48 = load ptr, ptr %12, align 8
  %49 = icmp ne ptr %48, null
  br i1 %49, label %51, label %50

50:                                               ; preds = %44
  store i32 1, ptr %10, align 4
  br label %62

51:                                               ; preds = %44
  %52 = load ptr, ptr %12, align 8
  %53 = getelementptr inbounds nuw %struct.SDL_TextEditingCandidatesEvent, ptr %11, i32 0, i32 4
  store ptr %52, ptr %53, align 8
  %54 = load i32, ptr %6, align 4
  %55 = getelementptr inbounds nuw %struct.SDL_TextEditingCandidatesEvent, ptr %11, i32 0, i32 5
  store i32 %54, ptr %55, align 8
  %56 = load i32, ptr %7, align 4
  %57 = getelementptr inbounds nuw %struct.SDL_TextEditingCandidatesEvent, ptr %11, i32 0, i32 6
  store i32 %56, ptr %57, align 4
  %58 = load i8, ptr %8, align 1, !range !3, !noundef !4
  %59 = trunc i8 %58 to i1
  %60 = getelementptr inbounds nuw %struct.SDL_TextEditingCandidatesEvent, ptr %11, i32 0, i32 7
  %61 = zext i1 %59 to i8
  store i8 %61, ptr %60, align 8
  store i32 0, ptr %10, align 4
  br label %62

62:                                               ; preds = %51, %50
  call void @llvm.lifetime.end.p0(i64 8, ptr %12) #6
  %63 = load i32, ptr %10, align 4
  switch i32 %63, label %72 [
    i32 0, label %64
  ]

64:                                               ; preds = %62
  br label %70

65:                                               ; preds = %39
  %66 = getelementptr inbounds nuw %struct.SDL_TextEditingCandidatesEvent, ptr %11, i32 0, i32 4
  store ptr null, ptr %66, align 8
  %67 = getelementptr inbounds nuw %struct.SDL_TextEditingCandidatesEvent, ptr %11, i32 0, i32 5
  store i32 0, ptr %67, align 8
  %68 = getelementptr inbounds nuw %struct.SDL_TextEditingCandidatesEvent, ptr %11, i32 0, i32 6
  store i32 -1, ptr %68, align 4
  %69 = getelementptr inbounds nuw %struct.SDL_TextEditingCandidatesEvent, ptr %11, i32 0, i32 7
  store i8 0, ptr %69, align 8
  br label %70

70:                                               ; preds = %65, %64
  %71 = call zeroext i1 @SDL_PushEvent_REAL(ptr noundef %11)
  store i32 0, ptr %10, align 4
  br label %72

72:                                               ; preds = %70, %62
  call void @llvm.lifetime.end.p0(i64 128, ptr %11) #6
  %73 = load i32, ptr %10, align 4
  switch i32 %73, label %76 [
    i32 0, label %74
  ]

74:                                               ; preds = %72
  br label %75

75:                                               ; preds = %74, %24
  store i32 0, ptr %10, align 4
  br label %76

76:                                               ; preds = %75, %72, %23
  call void @llvm.lifetime.end.p0(i64 8, ptr %9) #6
  %77 = load i32, ptr %10, align 4
  switch i32 %77, label %79 [
    i32 0, label %78
    i32 1, label %78
  ]

78:                                               ; preds = %76, %76
  ret void

79:                                               ; preds = %76
  unreachable
}