; Function Attrs: nounwind uwtable
define hidden void @SDL_SendEditingTextCandidates(ptr noundef readonly captures(none) %0, i32 noundef %1, i32 noundef %2, i1 noundef zeroext %3) local_unnamed_addr #0 {
  %5 = alloca %union.SDL_Event, align 8
  %6 = zext i1 %3 to i8
  %7 = load ptr, ptr @SDL_keyboard, align 8
  %.not = icmp eq ptr %7, null
  br i1 %.not, label %50, label %8

8:                                                ; preds = %4
  %9 = tail call zeroext i1 @SDL_TextInputActive_REAL(ptr noundef nonnull %7) #13
  br i1 %9, label %10, label %50

10:                                               ; preds = %8
  %11 = tail call zeroext i1 @SDL_EventEnabled_REAL(i32 noundef 775) #13
  br i1 %11, label %12, label %50

12:                                               ; preds = %10
  call void @llvm.lifetime.start.p0(i64 128, ptr nonnull %5) #13
  store i32 775, ptr %5, align 8
  %13 = getelementptr inbounds nuw i8, ptr %5, i64 8
  store i64 0, ptr %13, align 8
  %14 = load ptr, ptr @SDL_keyboard, align 8
  %.not18 = icmp eq ptr %14, null
  br i1 %.not18, label %17, label %15

15:                                               ; preds = %12
  %16 = load i32, ptr %14, align 8
  br label %17

17:                                               ; preds = %12, %15
  %18 = phi i32 [ %16, %15 ], [ 0, %12 ]
  %19 = getelementptr inbounds nuw i8, ptr %5, i64 16
  store i32 %18, ptr %19, align 8
  %20 = icmp sgt i32 %1, 0
  br i1 %20, label %21, label %.critedge20

21:                                               ; preds = %17
  %22 = add nuw nsw i32 %1, 1
  %23 = zext nneg i32 %22 to i64
  %24 = shl nuw nsw i64 %23, 3
  %wide.trip.count.i = zext nneg i32 %1 to i64
  br label %25

25:                                               ; preds = %25, %21
  %indvars.iv.i = phi i64 [ 0, %21 ], [ %indvars.iv.next.i, %25 ]
  %.03034.i = phi i64 [ %24, %21 ], [ %30, %25 ]
  %26 = getelementptr inbounds nuw ptr, ptr %0, i64 %indvars.iv.i
  %27 = load ptr, ptr %26, align 8
  %28 = tail call i64 @SDL_strlen_REAL(ptr noundef %27) #13
  %29 = add i64 %.03034.i, 1
  %30 = add i64 %29, %28
  %indvars.iv.next.i = add nuw nsw i64 %indvars.iv.i, 1
  %exitcond.not.i = icmp eq i64 %indvars.iv.next.i, %wide.trip.count.i
  br i1 %exitcond.not.i, label %31, label %25, !llvm.loop !13

31:                                               ; preds = %25
  %32 = tail call ptr @SDL_AllocateTemporaryMemory(i64 noundef %30) #13
  %.not.i = icmp eq ptr %32, null
  br i1 %.not.i, label %.sink.split, label %33

33:                                               ; preds = %31
  %34 = getelementptr inbounds nuw ptr, ptr %32, i64 %23
  br label %35

35:                                               ; preds = %35, %33
  %indvars.iv40.i = phi i64 [ 0, %33 ], [ %indvars.iv.next41.i, %35 ]
  %.03136.i = phi ptr [ %34, %33 ], [ %42, %35 ]
  %36 = getelementptr inbounds nuw ptr, ptr %0, i64 %indvars.iv40.i
  %37 = load ptr, ptr %36, align 8
  %38 = tail call i64 @SDL_strlen_REAL(ptr noundef %37) #13
  %39 = add i64 %38, 1
  %40 = getelementptr inbounds nuw ptr, ptr %32, i64 %indvars.iv40.i
  store ptr %.03136.i, ptr %40, align 8
  %41 = load ptr, ptr %36, align 8
  tail call void @llvm.memcpy.p0.p0.i64(ptr align 1 %.03136.i, ptr align 1 %41, i64 %39, i1 false)
  %42 = getelementptr inbounds nuw i8, ptr %.03136.i, i64 %39
  %indvars.iv.next41.i = add nuw nsw i64 %indvars.iv40.i, 1
  %exitcond44.not.i = icmp eq i64 %indvars.iv.next41.i, %wide.trip.count.i
  br i1 %exitcond44.not.i, label %43, label %35, !llvm.loop !14

43:                                               ; preds = %35
  %44 = getelementptr inbounds nuw ptr, ptr %32, i64 %wide.trip.count.i
  store ptr null, ptr %44, align 8
  br label %.critedge20

.critedge20:                                      ; preds = %17, %43
  %.sink26 = phi ptr [ %32, %43 ], [ null, %17 ]
  %.sink24 = phi i32 [ %1, %43 ], [ 0, %17 ]
  %.sink22 = phi i32 [ %2, %43 ], [ -1, %17 ]
  %.sink = phi i8 [ %6, %43 ], [ 0, %17 ]
  %45 = getelementptr inbounds nuw i8, ptr %5, i64 24
  store ptr %.sink26, ptr %45, align 8
  %46 = getelementptr inbounds nuw i8, ptr %5, i64 32
  store i32 %.sink24, ptr %46, align 8
  %47 = getelementptr inbounds nuw i8, ptr %5, i64 36
  store i32 %.sink22, ptr %47, align 4
  %48 = getelementptr inbounds nuw i8, ptr %5, i64 40
  store i8 %.sink, ptr %48, align 8
  %49 = call zeroext i1 @SDL_PushEvent_REAL(ptr noundef nonnull %5) #13
  br label %.sink.split

.sink.split:                                      ; preds = %31, %.critedge20
  call void @llvm.lifetime.end.p0(i64 128, ptr nonnull %5) #13
  br label %50

50:                                               ; preds = %.sink.split, %10, %4, %8
  ret void
}